; Function Attrs: nounwind uwtable
define noalias nonnull ptr @l_Lean_Meta_altArity(ptr noundef %0, ptr noundef %1, ptr noundef %2) local_unnamed_addr #1 {
  br label %.backedge

.backedge:                                        ; preds = %.backedge.backedge, %3
  %.022 = phi ptr [ %2, %3 ], [ %.022.be, %.backedge.backedge ]
  %.0 = phi ptr [ %1, %3 ], [ %.0.be, %.backedge.backedge ]
  %4 = ptrtoint ptr %.022 to i64
  %5 = and i64 %4, 1
  %.not.i32 = icmp eq i64 %5, 0
  br i1 %.not.i32, label %9, label %6

6:                                                ; preds = %.backedge
  %7 = lshr i64 %4, 1
  %8 = trunc i64 %7 to i32
  br label %lean_obj_tag.exit

9:                                                ; preds = %.backedge
  %10 = getelementptr i8, ptr %.022, i64 4
  %.val.i = load i32, ptr %10, align 4
  %11 = lshr i32 %.val.i, 24
  br label %lean_obj_tag.exit

lean_obj_tag.exit:                                ; preds = %6, %9
  %.0.i33 = phi i32 [ %8, %6 ], [ %11, %9 ]
  switch i32 %.0.i33, label %58 [
    i32 7, label %12
    i32 8, label %35
  ]

12:                                               ; preds = %lean_obj_tag.exit
  %13 = getelementptr inbounds nuw i8, ptr %.022, i64 24
  %14 = load ptr, ptr %13, align 8, !tbaa !9
  %15 = ptrtoint ptr %.0 to i64
  %16 = and i64 %15, 1
  %.not41 = icmp eq i64 %16, 0
  br i1 %.not41, label %27, label %17, !prof !15

17:                                               ; preds = %12
  %18 = lshr i64 %15, 1
  %19 = add nuw i64 %18, 1
  %20 = icmp sgt i64 %19, -1
  br i1 %20, label %21, label %25, !prof !11

21:                                               ; preds = %17
  %22 = shl nuw i64 %19, 1
  %23 = or disjoint i64 %22, 1
  %24 = inttoptr i64 %23 to ptr
  br label %.backedge.backedge

25:                                               ; preds = %17
  %26 = tail call ptr @lean_big_usize_to_nat(i64 noundef %19) #5
  br label %.backedge.backedge

27:                                               ; preds = %12
  %28 = tail call ptr @lean_nat_big_add(ptr noundef %.0, ptr noundef nonnull inttoptr (i64 3 to ptr)) #5
  %29 = load i32, ptr %.0, align 4, !tbaa !4
  %30 = icmp sgt i32 %29, 1
  br i1 %30, label %31, label %33, !prof !11

31:                                               ; preds = %27
  %32 = add nsw i32 %29, -1
  store i32 %32, ptr %.0, align 4, !tbaa !4
  br label %.backedge.backedge

33:                                               ; preds = %27
  %.not.i = icmp eq i32 %29, 0
  br i1 %.not.i, label %.backedge.backedge, label %34

34:                                               ; preds = %33
  tail call void @lean_dec_ref_cold(ptr noundef nonnull %.0) #5
  br label %.backedge.backedge

35:                                               ; preds = %lean_obj_tag.exit
  %36 = getelementptr inbounds nuw i8, ptr %.022, i64 32
  %37 = load ptr, ptr %36, align 8, !tbaa !9
  %38 = ptrtoint ptr %.0 to i64
  %39 = and i64 %38, 1
  %.not = icmp eq i64 %39, 0
  br i1 %.not, label %50, label %40, !prof !15

40:                                               ; preds = %35
  %41 = lshr i64 %38, 1
  %42 = add nuw i64 %41, 1
  %43 = icmp sgt i64 %42, -1
  br i1 %43, label %44, label %48, !prof !11

44:                                               ; preds = %40
  %45 = shl nuw i64 %42, 1
  %46 = or disjoint i64 %45, 1
  %47 = inttoptr i64 %46 to ptr
  br label %.backedge.backedge

48:                                               ; preds = %40
  %49 = tail call ptr @lean_big_usize_to_nat(i64 noundef %42) #5
  br label %.backedge.backedge

50:                                               ; preds = %35
  %51 = tail call ptr @lean_nat_big_add(ptr noundef %.0, ptr noundef nonnull inttoptr (i64 3 to ptr)) #5
  %52 = load i32, ptr %.0, align 4, !tbaa !4
  %53 = icmp sgt i32 %52, 1
  br i1 %53, label %54, label %56, !prof !11

54:                                               ; preds = %50
  %55 = add nsw i32 %52, -1
  store i32 %55, ptr %.0, align 4, !tbaa !4
  br label %.backedge.backedge

.backedge.backedge:                               ; preds = %54, %56, %57, %48, %44, %31, %33, %34, %25, %21
  %.022.be = phi ptr [ %14, %21 ], [ %14, %25 ], [ %14, %34 ], [ %14, %33 ], [ %14, %31 ], [ %37, %44 ], [ %37, %48 ], [ %37, %57 ], [ %37, %56 ], [ %37, %54 ]
  %.0.be = phi ptr [ %24, %21 ], [ %26, %25 ], [ %28, %34 ], [ %28, %33 ], [ %28, %31 ], [ %47, %44 ], [ %49, %48 ], [ %51, %57 ], [ %51, %56 ], [ %51, %54 ]
  br label %.backedge

56:                                               ; preds = %50
  %.not.i28 = icmp eq i32 %52, 0
  br i1 %.not.i28, label %.backedge.backedge, label %57

57:                                               ; preds = %56
  tail call void @lean_dec_ref_cold(ptr noundef nonnull %.0) #5
  br label %.backedge.backedge

58:                                               ; preds = %lean_obj_tag.exit
  %59 = tail call ptr @l_Lean_Expr_getAppFn(ptr noundef %.022) #5
  %60 = tail call zeroext i8 @lean_expr_eqv(ptr noundef %59, ptr noundef %0) #5
  %61 = ptrtoint ptr %59 to i64
  %62 = and i64 %61, 1
  %.not42 = icmp eq i64 %62, 0
  br i1 %.not42, label %63, label %lean_dec.exit

63:                                               ; preds = %58
  %64 = load i32, ptr %59, align 4, !tbaa !4
  %65 = icmp sgt i32 %64, 1
  br i1 %65, label %66, label %68, !prof !11

66:                                               ; preds = %63
  %67 = add nsw i32 %64, -1
  store i32 %67, ptr %59, align 4, !tbaa !4
  br label %lean_dec.exit

68:                                               ; preds = %63
  %.not.i30 = icmp eq i32 %64, 0
  br i1 %.not.i30, label %lean_dec.exit, label %69

69:                                               ; preds = %68
  tail call void @lean_dec_ref_cold(ptr noundef nonnull %59) #5
  br label %lean_dec.exit

lean_dec.exit:                                    ; preds = %69, %68, %66, %58
  tail call void @lean_inc_heartbeat() #5
  %70 = tail call noalias ptr @mi_malloc_small(i64 noundef 24) #5
  %71 = icmp eq ptr %70, null
  br i1 %71, label %72, label %lean_alloc_ctor.exit

72:                                               ; preds = %lean_dec.exit
  tail call void @lean_internal_panic_out_of_memory() #6
  unreachable

lean_alloc_ctor.exit:                             ; preds = %lean_dec.exit
  %73 = zext i8 %60 to i64
  %74 = shl nuw nsw i64 %73, 1
  %75 = or disjoint i64 %74, 1
  %76 = inttoptr i64 %75 to ptr
  %77 = getelementptr inbounds nuw i8, ptr %70, i64 4
  store i32 1, ptr %70, align 4, !tbaa !4
  store i32 131096, ptr %77, align 4
  %78 = getelementptr inbounds nuw i8, ptr %70, i64 8
  store ptr %.0, ptr %78, align 8, !tbaa !9
  %79 = getelementptr inbounds nuw i8, ptr %70, i64 16
  store ptr %76, ptr %79, align 8, !tbaa !9
  ret ptr %70
}